target datalayout = "e-m:e-p270:32:32-p271:32:32-p272:64:64-i64:64-i128:128-f80:128-n8:16:32:64-S128"
target triple = "x86_64-pc-linux-gnu"

%struct.httpreq = type { [24 x i8], ptr, ptr, ptr, %struct.dynhds, %struct.dynhds }
%struct.dynhds = type { ptr, i64, i64, i64, i64, i64, i32 }

@Curl_cfree = external global ptr, align 8

; Function Attrs: nounwind uwtable
define hidden void @Curl_http_req_free(ptr noundef %0) #0 {
  %2 = alloca ptr, align 8
  store ptr %0, ptr %2, align 8, !tbaa !236
  %3 = load ptr, ptr %2, align 8, !tbaa !236
  %4 = icmp ne ptr %3, null
  br i1 %4, label %5, label %24

5:                                                ; preds = %1
  %6 = load ptr, ptr @Curl_cfree, align 8, !tbaa !96
  %7 = load ptr, ptr %2, align 8, !tbaa !236
  %8 = getelementptr inbounds nuw %struct.httpreq, ptr %7, i32 0, i32 1
  %9 = load ptr, ptr %8, align 8, !tbaa !238
  call void %6(ptr noundef %9)
  %10 = load ptr, ptr @Curl_cfree, align 8, !tbaa !96
  %11 = load ptr, ptr %2, align 8, !tbaa !236
  %12 = getelementptr inbounds nuw %struct.httpreq, ptr %11, i32 0, i32 2
  %13 = load ptr, ptr %12, align 8, !tbaa !242
  call void %10(ptr noundef %13)
  %14 = load ptr, ptr @Curl_cfree, align 8, !tbaa !96
  %15 = load ptr, ptr %2, align 8, !tbaa !236
  %16 = getelementptr inbounds nuw %struct.httpreq, ptr %15, i32 0, i32 3
  %17 = load ptr, ptr %16, align 8, !tbaa !243
  call void %14(ptr noundef %17)
  %18 = load ptr, ptr %2, align 8, !tbaa !236
  %19 = getelementptr inbounds nuw %struct.httpreq, ptr %18, i32 0, i32 4
  call void @Curl_dynhds_free(ptr noundef %19)
  %20 = load ptr, ptr %2, align 8, !tbaa !236
  %21 = getelementptr inbounds nuw %struct.httpreq, ptr %20, i32 0, i32 5
  call void @Curl_dynhds_free(ptr noundef %21)
  %22 = load ptr, ptr @Curl_cfree, align 8, !tbaa !96
  %23 = load ptr, ptr %2, align 8, !tbaa !236
  call void %22(ptr noundef %23)
  br label %24

24:                                               ; preds = %5, %1
  ret void
}