; Function Attrs: nounwind uwtable
define hidden void @Curl_http_req_free(ptr noundef %0) local_unnamed_addr #0 {
  %.not = icmp eq ptr %0, null
  br i1 %.not, label %15, label %2

2:                                                ; preds = %1
  %3 = load ptr, ptr @Curl_cfree, align 8, !tbaa !88
  %4 = getelementptr inbounds nuw i8, ptr %0, i64 24
  %5 = load ptr, ptr %4, align 8, !tbaa !239
  tail call void %3(ptr noundef %5) #11
  %6 = load ptr, ptr @Curl_cfree, align 8, !tbaa !88
  %7 = getelementptr inbounds nuw i8, ptr %0, i64 32
  %8 = load ptr, ptr %7, align 8, !tbaa !243
  tail call void %6(ptr noundef %8) #11
  %9 = load ptr, ptr @Curl_cfree, align 8, !tbaa !88
  %10 = getelementptr inbounds nuw i8, ptr %0, i64 40
  %11 = load ptr, ptr %10, align 8, !tbaa !244
  tail call void %9(ptr noundef %11) #11
  %12 = getelementptr inbounds nuw i8, ptr %0, i64 48
  tail call void @Curl_dynhds_free(ptr noundef nonnull %12) #11
  %13 = getelementptr inbounds nuw i8, ptr %0, i64 104
  tail call void @Curl_dynhds_free(ptr noundef nonnull %13) #11
  %14 = load ptr, ptr @Curl_cfree, align 8, !tbaa !88
  tail call void %14(ptr noundef nonnull %0) #11
  br label %15

15:                                               ; preds = %2, %1
  ret void
}